; Function Attrs: mustprogress nofree norecurse nosync nounwind willreturn memory(read, inaccessiblemem: none) uwtable
define dso_local noundef i32 @_ZN3igl7tinyply10hash_fnv1aERKNSt7__cxx1112basic_stringIcSt11char_traitsIcESaIcEEE(ptr noundef nonnull readonly align 8 captures(none) dereferenceable(32) %0) local_unnamed_addr #5 {
  %2 = load ptr, ptr %0, align 8, !tbaa !28
  %3 = getelementptr inbounds nuw i8, ptr %0, i64 8
  %4 = load i64, ptr %3, align 8, !tbaa !32
  %5 = getelementptr inbounds nuw i8, ptr %2, i64 %4
  %.not9 = icmp samesign eq i64 %4, 0
  br i1 %.not9, label %._crit_edge, label %.lr.ph

._crit_edge:                                      ; preds = %.lr.ph, %1
  %.0.lcssa = phi i32 [ -2128831035, %1 ], [ %9, %.lr.ph ]
  ret i32 %.0.lcssa

.lr.ph:                                           ; preds = %1, %.lr.ph
  %.011 = phi i32 [ %9, %.lr.ph ], [ -2128831035, %1 ]
  %.sroa.06.010 = phi ptr [ %10, %.lr.ph ], [ %2, %1 ]
  %6 = load i8, ptr %.sroa.06.010, align 1, !tbaa !33
  %7 = sext i8 %6 to i32
  %8 = xor i32 %.011, %7
  %9 = mul i32 %8, 16777619
  %10 = getelementptr inbounds nuw i8, ptr %.sroa.06.010, i64 1
  %.not = icmp eq ptr %10, %5
  br i1 %.not, label %._crit_edge, label %.lr.ph
}